; Function Attrs: nounwind uwtable
define range(i32 -1, 1) i32 @H5Pset_small_data_block_size(i64 noundef %0, i64 noundef %1) local_unnamed_addr #0 {
  %3 = alloca i64, align 8
  %4 = alloca %struct.H5CX_node_t, align 8
  store i64 %1, ptr %3, align 8, !tbaa !3
  call void @llvm.lifetime.start.p0(i64 480, ptr nonnull %4) #15
  call void @llvm.memset.p0.i64(ptr noundef nonnull align 8 dereferenceable(480) %4, i8 0, i64 480, i1 false)
  %5 = load i8, ptr @H5_libinit_g, align 1, !tbaa !16, !range !18, !noundef !19
  %6 = trunc nuw i8 %5 to i1
  %7 = load i8, ptr @H5_libterm_g, align 1, !range !18
  %8 = trunc nuw i8 %7 to i1
  %9 = select i1 %6, i1 true, i1 %8
  br i1 %9, label %17, label %10, !prof !20

10:                                               ; preds = %2
  %11 = tail call i32 @H5_init_library() #15
  %12 = icmp slt i32 %11, 0
  br i1 %12, label %13, label %._crit_edge, !prof !28

._crit_edge:                                      ; preds = %10
  %.pre = load i8, ptr @H5_libterm_g, align 1, !range !18
  br label %17

13:                                               ; preds = %10
  %14 = load i64, ptr @H5E_FUNC_g, align 8, !tbaa !3
  %15 = load i64, ptr @H5E_CANTINIT_g, align 8, !tbaa !3
  %16 = tail call i32 (ptr, ptr, i32, i64, i64, ptr, ...) @H5E_printf_stack(ptr noundef nonnull @.str.2, ptr noundef nonnull @__func__.H5Pset_small_data_block_size, i32 noundef 2678, i64 noundef %14, i64 noundef %15, ptr noundef nonnull @.str.15) #15
  br label %.thread20

17:                                               ; preds = %._crit_edge, %2
  %18 = phi i8 [ %.pre, %._crit_edge ], [ %7, %2 ]
  %19 = load i8, ptr @H5P_init_g, align 1, !tbaa !16, !range !18, !noundef !19
  %20 = trunc nuw i8 %19 to i1
  %21 = trunc nuw i8 %18 to i1
  %22 = select i1 %20, i1 true, i1 %21
  br i1 %22, label %30, label %23, !prof !20

23:                                               ; preds = %17
  store i8 1, ptr @H5P_init_g, align 1, !tbaa !16
  %24 = tail call i32 @H5P__init_package() #15
  %25 = icmp slt i32 %24, 0
  br i1 %25, label %26, label %30, !prof !29

26:                                               ; preds = %23
  store i8 0, ptr @H5P_init_g, align 1, !tbaa !16
  %27 = load i64, ptr @H5E_FUNC_g, align 8, !tbaa !3
  %28 = load i64, ptr @H5E_CANTINIT_g, align 8, !tbaa !3
  %29 = tail call i32 (ptr, ptr, i32, i64, i64, ptr, ...) @H5E_printf_stack(ptr noundef nonnull @.str.2, ptr noundef nonnull @__func__.H5Pset_small_data_block_size, i32 noundef 2678, i64 noundef %27, i64 noundef %28, ptr noundef nonnull @.str.16) #15
  br label %.thread20

30:                                               ; preds = %17, %23
  %31 = call i32 @H5CX_push(ptr noundef nonnull %4) #15
  %32 = icmp slt i32 %31, 0
  br i1 %32, label %33, label %37, !prof !28

33:                                               ; preds = %30
  %34 = load i64, ptr @H5E_FUNC_g, align 8, !tbaa !3
  %35 = load i64, ptr @H5E_CANTSET_g, align 8, !tbaa !3
  %36 = call i32 (ptr, ptr, i32, i64, i64, ptr, ...) @H5E_printf_stack(ptr noundef nonnull @.str.2, ptr noundef nonnull @__func__.H5Pset_small_data_block_size, i32 noundef 2678, i64 noundef %34, i64 noundef %35, ptr noundef nonnull @.str.17) #15
  br label %.thread20

37:                                               ; preds = %30
  %38 = call i32 @H5E_clear_stack() #15
  %39 = load i64, ptr @H5P_CLS_FILE_ACCESS_ID_g, align 8, !tbaa !3
  %40 = call ptr @H5P_object_verify(i64 noundef %0, i64 noundef %39, i1 noundef zeroext false) #15
  %41 = icmp eq ptr %40, null
  br i1 %41, label %42, label %46, !prof !30

42:                                               ; preds = %37
  %43 = load i64, ptr @H5E_ID_g, align 8, !tbaa !3
  %44 = load i64, ptr @H5E_BADID_g, align 8, !tbaa !3
  %45 = call i32 (ptr, ptr, i32, i64, i64, ptr, ...) @H5E_printf_stack(ptr noundef nonnull @.str.2, ptr noundef nonnull @__func__.H5Pset_small_data_block_size, i32 noundef 2682, i64 noundef %43, i64 noundef %44, ptr noundef nonnull @.str.19) #15
  br label %.thread26

46:                                               ; preds = %37
  %47 = call i32 @H5P_set(ptr noundef nonnull %40, ptr noundef nonnull @.str.80, ptr noundef nonnull %3) #15
  %48 = icmp slt i32 %47, 0
  br i1 %48, label %49, label %54, !prof !30

49:                                               ; preds = %46
  %50 = load i64, ptr @H5E_PLIST_g, align 8, !tbaa !3
  %51 = load i64, ptr @H5E_CANTSET_g, align 8, !tbaa !3
  %52 = call i32 (ptr, ptr, i32, i64, i64, ptr, ...) @H5E_printf_stack(ptr noundef nonnull @.str.2, ptr noundef nonnull @__func__.H5Pset_small_data_block_size, i32 noundef 2686, i64 noundef %50, i64 noundef %51, ptr noundef nonnull @.str.81) #15
  br label %.thread26

.thread26:                                        ; preds = %49, %42
  %53 = call i32 @H5CX_pop(i1 noundef zeroext true) #15
  br label %.thread20

54:                                               ; preds = %46
  %55 = call i32 @H5CX_pop(i1 noundef zeroext true) #15
  br label %57

.thread20:                                        ; preds = %33, %26, %13, %.thread26
  %56 = call i32 @H5E_dump_api_stack() #15
  br label %57

57:                                               ; preds = %54, %.thread20
  %.0101523 = phi i32 [ -1, %.thread20 ], [ 0, %54 ]
  call void @llvm.lifetime.end.p0(i64 480, ptr nonnull %4) #15
  ret i32 %.0101523
}